target datalayout = "e-m:e-p270:32:32-p271:32:32-p272:64:64-i64:64-i128:128-f80:128-n8:16:32:64-S128"
target triple = "x86_64-pc-linux-gnu"

%struct.AVFilterContext = type { ptr, ptr, ptr, ptr, ptr, i32, ptr, ptr, i32, ptr, ptr, i32, i32, ptr, ptr, ptr, ptr, i32, ptr, i32, i32 }
%struct.AudioLimiterContext = type { ptr, double, double, double, double, double, double, i32, i32, double, i32, i32, double, ptr, i32, i32, ptr, ptr, i32, i32, i64, i64, i32, ptr, double, i32, i32, i32 }
%struct.AVRational = type { i32, i32 }
%struct.AVFilterLink = type { ptr, ptr, ptr, ptr, i32, i32, i32, i32, %struct.AVRational, i32, i32, i32, %struct.AVChannelLayout, %struct.AVRational, ptr, i32, %struct.AVFilterFormatsConfig, %struct.AVFilterFormatsConfig }
%struct.AVChannelLayout = type { i32, i32, %union.anon.1, ptr }
%union.anon.1 = type { i64 }
%struct.AVFilterFormatsConfig = type { ptr, ptr, ptr, ptr, ptr }
%struct.AVFrame = type { [8 x ptr], [8 x i32], ptr, i32, i32, i32, i32, i32, %struct.AVRational, i64, i64, %struct.AVRational, i32, ptr, i32, i32, [8 x ptr], ptr, i32, ptr, i32, i32, i32, i32, i32, i32, i32, i64, ptr, i32, ptr, ptr, i64, i64, i64, i64, ptr, %struct.AVChannelLayout, i64 }

; Function Attrs: nounwind uwtable
define internal i32 @request_frame(ptr noundef %0) #2 {
  %2 = alloca i32, align 4
  %3 = alloca ptr, align 8
  %4 = alloca ptr, align 8
  %5 = alloca ptr, align 8
  %6 = alloca i32, align 4
  %7 = alloca ptr, align 8
  %8 = alloca i32, align 4
  store ptr %0, ptr %3, align 8, !tbaa !34
  call void @llvm.lifetime.start.p0(i64 8, ptr %4) #10
  %9 = load ptr, ptr %3, align 8, !tbaa !34
  %10 = getelementptr inbounds nuw %struct.AVFilterLink, ptr %9, i32 0, i32 0
  %11 = load ptr, ptr %10, align 8, !tbaa !101
  store ptr %11, ptr %4, align 8, !tbaa !4
  call void @llvm.lifetime.start.p0(i64 8, ptr %5) #10
  %12 = load ptr, ptr %4, align 8, !tbaa !4
  %13 = getelementptr inbounds nuw %struct.AVFilterContext, ptr %12, i32 0, i32 9
  %14 = load ptr, ptr %13, align 8, !tbaa !9
  store ptr %14, ptr %5, align 8, !tbaa !22
  call void @llvm.lifetime.start.p0(i64 4, ptr %6) #10
  %15 = load ptr, ptr %4, align 8, !tbaa !4
  %16 = getelementptr inbounds nuw %struct.AVFilterContext, ptr %15, i32 0, i32 4
  %17 = load ptr, ptr %16, align 8, !tbaa !102
  %18 = getelementptr inbounds ptr, ptr %17, i64 0
  %19 = load ptr, ptr %18, align 8, !tbaa !34
  %20 = call i32 @ff_request_frame(ptr noundef %19)
  store i32 %20, ptr %6, align 4, !tbaa !50
  %21 = load i32, ptr %6, align 4, !tbaa !50
  %22 = icmp eq i32 %21, -541478725
  br i1 %22, label %23, label %66

23:                                               ; preds = %1
  %24 = load ptr, ptr %5, align 8, !tbaa !22
  %25 = getelementptr inbounds nuw %struct.AudioLimiterContext, ptr %24, i32 0, i32 19
  %26 = load i32, ptr %25, align 4, !tbaa !98
  %27 = icmp sgt i32 %26, 0
  br i1 %27, label %28, label %66

28:                                               ; preds = %23
  call void @llvm.lifetime.start.p0(i64 8, ptr %7) #10
  %29 = load ptr, ptr %3, align 8, !tbaa !34
  %30 = load ptr, ptr %5, align 8, !tbaa !22
  %31 = getelementptr inbounds nuw %struct.AudioLimiterContext, ptr %30, i32 0, i32 19
  %32 = load i32, ptr %31, align 4, !tbaa !98
  %33 = icmp sgt i32 1024, %32
  br i1 %33, label %34, label %38

34:                                               ; preds = %28
  %35 = load ptr, ptr %5, align 8, !tbaa !22
  %36 = getelementptr inbounds nuw %struct.AudioLimiterContext, ptr %35, i32 0, i32 19
  %37 = load i32, ptr %36, align 4, !tbaa !98
  br label %39

38:                                               ; preds = %28
  br label %39

39:                                               ; preds = %38, %34
  %40 = phi i32 [ %37, %34 ], [ 1024, %38 ]
  %41 = call ptr @ff_get_audio_buffer(ptr noundef %29, i32 noundef %40)
  store ptr %41, ptr %7, align 8, !tbaa !36
  %42 = load ptr, ptr %7, align 8, !tbaa !36
  %43 = icmp ne ptr %42, null
  br i1 %43, label %45, label %44

44:                                               ; preds = %39
  store i32 -12, ptr %2, align 4
  store i32 1, ptr %8, align 4
  br label %65

45:                                               ; preds = %39
  %46 = load ptr, ptr %7, align 8, !tbaa !36
  %47 = getelementptr inbounds nuw %struct.AVFrame, ptr %46, i32 0, i32 5
  %48 = load i32, ptr %47, align 8, !tbaa !61
  %49 = load ptr, ptr %5, align 8, !tbaa !22
  %50 = getelementptr inbounds nuw %struct.AudioLimiterContext, ptr %49, i32 0, i32 19
  %51 = load i32, ptr %50, align 4, !tbaa !98
  %52 = sub nsw i32 %51, %48
  store i32 %52, ptr %50, align 4, !tbaa !98
  %53 = load ptr, ptr %5, align 8, !tbaa !22
  %54 = getelementptr inbounds nuw %struct.AudioLimiterContext, ptr %53, i32 0, i32 20
  %55 = load i64, ptr %54, align 8, !tbaa !96
  %56 = load ptr, ptr %7, align 8, !tbaa !36
  %57 = getelementptr inbounds nuw %struct.AVFrame, ptr %56, i32 0, i32 9
  store i64 %55, ptr %57, align 8, !tbaa !86
  %58 = load ptr, ptr %4, align 8, !tbaa !4
  %59 = getelementptr inbounds nuw %struct.AVFilterContext, ptr %58, i32 0, i32 4
  %60 = load ptr, ptr %59, align 8, !tbaa !102
  %61 = getelementptr inbounds ptr, ptr %60, i64 0
  %62 = load ptr, ptr %61, align 8, !tbaa !34
  %63 = load ptr, ptr %7, align 8, !tbaa !36
  %64 = call i32 @filter_frame(ptr noundef %62, ptr noundef %63)
  store i32 %64, ptr %2, align 4
  store i32 1, ptr %8, align 4
  br label %65

65:                                               ; preds = %45, %44
  call void @llvm.lifetime.end.p0(i64 8, ptr %7) #10
  br label %68

66:                                               ; preds = %23, %1
  %67 = load i32, ptr %6, align 4, !tbaa !50
  store i32 %67, ptr %2, align 4
  store i32 1, ptr %8, align 4
  br label %68

68:                                               ; preds = %66, %65
  call void @llvm.lifetime.end.p0(i64 4, ptr %6) #10
  call void @llvm.lifetime.end.p0(i64 8, ptr %5) #10
  call void @llvm.lifetime.end.p0(i64 8, ptr %4) #10
  %69 = load i32, ptr %2, align 4
  ret i32 %69
}