; Function Attrs: nounwind uwtable
define internal i32 @request_frame(ptr noundef %0) #3 {
  %2 = load ptr, ptr %0, align 8, !tbaa !93
  %3 = getelementptr inbounds nuw i8, ptr %2, i64 72
  %4 = load ptr, ptr %3, align 8, !tbaa !4
  %5 = getelementptr inbounds nuw i8, ptr %2, i64 32
  %6 = load ptr, ptr %5, align 8, !tbaa !94
  %7 = load ptr, ptr %6, align 8, !tbaa !42
  %8 = tail call i32 @ff_request_frame(ptr noundef %7) #10
  %9 = icmp eq i32 %8, -541478725
  br i1 %9, label %10, label %27

10:                                               ; preds = %1
  %11 = getelementptr inbounds nuw i8, ptr %4, i64 124
  %12 = load i32, ptr %11, align 4, !tbaa !92
  %13 = icmp sgt i32 %12, 0
  br i1 %13, label %14, label %27

14:                                               ; preds = %10
  %spec.select = tail call i32 @llvm.umin.i32(i32 %12, i32 1024)
  %15 = tail call ptr @ff_get_audio_buffer(ptr noundef nonnull %0, i32 noundef %spec.select) #10
  %.not = icmp eq ptr %15, null
  br i1 %.not, label %27, label %16

16:                                               ; preds = %14
  %17 = getelementptr inbounds nuw i8, ptr %15, i64 112
  %18 = load i32, ptr %17, align 8, !tbaa !54
  %19 = load i32, ptr %11, align 4, !tbaa !92
  %20 = sub nsw i32 %19, %18
  store i32 %20, ptr %11, align 4, !tbaa !92
  %21 = getelementptr inbounds nuw i8, ptr %4, i64 128
  %22 = load i64, ptr %21, align 8, !tbaa !90
  %23 = getelementptr inbounds nuw i8, ptr %15, i64 136
  store i64 %22, ptr %23, align 8, !tbaa !79
  %24 = load ptr, ptr %5, align 8, !tbaa !94
  %25 = load ptr, ptr %24, align 8, !tbaa !42
  %26 = tail call i32 @filter_frame(ptr noundef %25, ptr noundef nonnull %15)
  br label %27

27:                                               ; preds = %1, %10, %16, %14
  %.1 = phi i32 [ %26, %16 ], [ -12, %14 ], [ -541478725, %10 ], [ %8, %1 ]
  ret i32 %.1
}